target datalayout = "e-m:e-p270:32:32-p271:32:32-p272:64:64-i64:64-i128:128-f80:128-n8:16:32:64-S128"
target triple = "x86_64-pc-linux-gnu"

%struct._stat_tap_table_item_type = type { i32, %union.anon.9, %union.anon.10 }
%union.anon.9 = type { ptr }
%union.anon.10 = type { ptr }
%struct._stat_tap_table_ui = type { i32, ptr, ptr, ptr, ptr, ptr, ptr, ptr, ptr, i64, ptr, i64, ptr, ptr, i32 }

@.str.1467 = private unnamed_addr constant [23 x i8] c"CAMEL Message Counters\00", align 1
@.str.1468 = private unnamed_addr constant [11 x i8] c"Request %s\00", align 1
@.str.1469 = private unnamed_addr constant [19 x i8] c"Unknown op code %d\00", align 1

; Function Attrs: alwaysinline nounwind
define internal ptr @memset.inline(ptr %0, i32 %1, i64 %2) #4 {
  %4 = alloca ptr, align 8
  %5 = alloca i32, align 4
  %6 = alloca i64, align 8
  store ptr %0, ptr %4, align 8
  store i32 %1, ptr %5, align 4
  store i64 %2, ptr %6, align 8
  %7 = load ptr, ptr %4, align 8
  %8 = load i32, ptr %5, align 4
  %9 = load i64, ptr %6, align 8
  %10 = load ptr, ptr %4, align 8
  %11 = call i64 @llvm.objectsize.i64.p0(ptr %10, i1 false, i1 true, i1 true)
  %12 = call ptr @__memset_chk(ptr noundef %7, i32 noundef %8, i64 noundef %9, i64 noundef %11) #11
  ret ptr %12
}

; Function Attrs: null_pointer_is_valid sspstrong uwtable
define internal void @camel_stat_init(ptr noundef %0) #0 {
  %2 = alloca ptr, align 8
  %3 = alloca ptr, align 8
  %4 = alloca i32, align 4
  %5 = alloca ptr, align 8
  %6 = alloca i32, align 4
  %7 = alloca [2 x %struct._stat_tap_table_item_type], align 16
  %8 = alloca i32, align 4
  %9 = alloca ptr, align 8
  %10 = alloca ptr, align 8
  store ptr %0, ptr %2, align 8
  call void @llvm.lifetime.start.p0(i64 8, ptr %3) #11
  store ptr @.str.1467, ptr %3, align 8
  call void @llvm.lifetime.start.p0(i64 4, ptr %4) #11
  store i32 2, ptr %4, align 4
  call void @llvm.lifetime.start.p0(i64 8, ptr %5) #11
  call void @llvm.lifetime.start.p0(i64 4, ptr %6) #11
  call void @llvm.lifetime.start.p0(i64 48, ptr %7) #11
  %11 = load ptr, ptr %2, align 8
  %12 = load ptr, ptr %3, align 8
  %13 = call ptr @stat_tap_find_table(ptr noundef %11, ptr noundef %12)
  store ptr %13, ptr %5, align 8
  %14 = load ptr, ptr %5, align 8
  %15 = icmp ne ptr %14, null
  br i1 %15, label %16, label %27

16:                                               ; preds = %1
  %17 = load ptr, ptr %2, align 8
  %18 = getelementptr inbounds nuw %struct._stat_tap_table_ui, ptr %17, i32 0, i32 6
  %19 = load ptr, ptr %18, align 8
  %20 = icmp ne ptr %19, null
  br i1 %20, label %21, label %26

21:                                               ; preds = %16
  %22 = load ptr, ptr %2, align 8
  %23 = getelementptr inbounds nuw %struct._stat_tap_table_ui, ptr %22, i32 0, i32 6
  %24 = load ptr, ptr %23, align 8
  %25 = load ptr, ptr %5, align 8
  call void %24(ptr noundef %25)
  br label %26

26:                                               ; preds = %21, %16
  store i32 1, ptr %8, align 4
  br label %67

27:                                               ; preds = %1
  %28 = load ptr, ptr %3, align 8
  %29 = load i32, ptr %4, align 4
  %30 = call ptr @stat_tap_init_table(ptr noundef %28, i32 noundef %29, i32 noundef 0, ptr noundef null)
  store ptr %30, ptr %5, align 8
  %31 = load ptr, ptr %2, align 8
  %32 = load ptr, ptr %5, align 8
  call void @stat_tap_add_table(ptr noundef %31, ptr noundef %32)
  %33 = getelementptr inbounds [2 x %struct._stat_tap_table_item_type], ptr %7, i64 0, i64 0
  %34 = call ptr @memset.inline(ptr noundef %33, i32 noundef 0, i64 noundef 48) #11
  %35 = getelementptr [2 x %struct._stat_tap_table_item_type], ptr %7, i64 0, i64 0
  %36 = getelementptr inbounds nuw %struct._stat_tap_table_item_type, ptr %35, i32 0, i32 0
  store i32 3, ptr %36, align 16
  %37 = getelementptr [2 x %struct._stat_tap_table_item_type], ptr %7, i64 0, i64 1
  %38 = getelementptr inbounds nuw %struct._stat_tap_table_item_type, ptr %37, i32 0, i32 0
  store i32 1, ptr %38, align 8
  %39 = getelementptr [2 x %struct._stat_tap_table_item_type], ptr %7, i64 0, i64 1
  %40 = getelementptr inbounds nuw %struct._stat_tap_table_item_type, ptr %39, i32 0, i32 1
  store i32 0, ptr %40, align 8
  store i32 0, ptr %6, align 4
  br label %41

41:                                               ; preds = %63, %27
  %42 = load i32, ptr %6, align 4
  %43 = icmp slt i32 %42, 256
  br i1 %43, label %44, label %66

44:                                               ; preds = %41
  call void @llvm.lifetime.start.p0(i64 8, ptr %9) #11
  %45 = load i32, ptr %6, align 4
  %46 = call ptr @try_val_to_str(i32 noundef %45, ptr noundef @camel_opr_code_strings)
  store ptr %46, ptr %9, align 8
  call void @llvm.lifetime.start.p0(i64 8, ptr %10) #11
  %47 = load ptr, ptr %9, align 8
  %48 = icmp ne ptr %47, null
  br i1 %48, label %49, label %52

49:                                               ; preds = %44
  %50 = load ptr, ptr %9, align 8
  %51 = call noalias ptr (ptr, ptr, ...) @wmem_strdup_printf(ptr noundef null, ptr noundef @.str.1468, ptr noundef %50)
  store ptr %51, ptr %10, align 8
  br label %55

52:                                               ; preds = %44
  %53 = load i32, ptr %6, align 4
  %54 = call noalias ptr (ptr, ptr, ...) @wmem_strdup_printf(ptr noundef null, ptr noundef @.str.1469, i32 noundef %53)
  store ptr %54, ptr %10, align 8
  br label %55

55:                                               ; preds = %52, %49
  %56 = load ptr, ptr %10, align 8
  %57 = getelementptr [2 x %struct._stat_tap_table_item_type], ptr %7, i64 0, i64 0
  %58 = getelementptr inbounds nuw %struct._stat_tap_table_item_type, ptr %57, i32 0, i32 1
  store ptr %56, ptr %58, align 8
  %59 = load ptr, ptr %5, align 8
  %60 = load i32, ptr %6, align 4
  %61 = load i32, ptr %4, align 4
  %62 = getelementptr inbounds [2 x %struct._stat_tap_table_item_type], ptr %7, i64 0, i64 0
  call void @stat_tap_init_table_row(ptr noundef %59, i32 noundef %60, i32 noundef %61, ptr noundef %62)
  call void @llvm.lifetime.end.p0(i64 8, ptr %10) #11
  call void @llvm.lifetime.end.p0(i64 8, ptr %9) #11
  br label %63

63:                                               ; preds = %55
  %64 = load i32, ptr %6, align 4
  %65 = add i32 %64, 1
  store i32 %65, ptr %6, align 4
  br label %41, !llvm.loop !8

66:                                               ; preds = %41
  store i32 0, ptr %8, align 4
  br label %67

67:                                               ; preds = %66, %26
  call void @llvm.lifetime.end.p0(i64 48, ptr %7) #11
  call void @llvm.lifetime.end.p0(i64 4, ptr %6) #11
  call void @llvm.lifetime.end.p0(i64 8, ptr %5) #11
  call void @llvm.lifetime.end.p0(i64 4, ptr %4) #11
  call void @llvm.lifetime.end.p0(i64 8, ptr %3) #11
  %68 = load i32, ptr %8, align 4
  switch i32 %68, label %70 [
    i32 0, label %69
    i32 1, label %69
  ]

69:                                               ; preds = %67, %67
  ret void

70:                                               ; preds = %67
  unreachable
}