; Function Attrs: null_pointer_is_valid sspstrong uwtable
define internal void @camel_stat_init(ptr noundef %0) #0 {
  %2 = alloca [2 x %struct._stat_tap_table_item_type], align 16
  call void @llvm.lifetime.start.p0(i64 48, ptr nonnull %2) #12
  %3 = tail call ptr @stat_tap_find_table(ptr noundef %0, ptr noundef nonnull @.str.1467)
  %.not = icmp eq ptr %3, null
  br i1 %.not, label %8, label %4

4:                                                ; preds = %1
  %5 = getelementptr inbounds nuw i8, ptr %0, i64 48
  %6 = load ptr, ptr %5, align 8
  %.not24 = icmp eq ptr %6, null
  br i1 %.not24, label %.loopexit, label %7

7:                                                ; preds = %4
  tail call void %6(ptr noundef nonnull %3)
  br label %.loopexit

8:                                                ; preds = %1
  %9 = tail call ptr @stat_tap_init_table(ptr noundef nonnull @.str.1467, i32 noundef 2, i32 noundef 0, ptr noundef null)
  tail call void @stat_tap_add_table(ptr noundef %0, ptr noundef %9)
  call void @llvm.memset.p0.i64(ptr noundef nonnull align 16 dereferenceable(48) %2, i8 noundef 0, i64 noundef 48, i1 noundef false) #12
  store i32 3, ptr %2, align 16
  %10 = getelementptr inbounds nuw i8, ptr %2, i64 24
  store i32 1, ptr %10, align 8
  %11 = getelementptr inbounds nuw i8, ptr %2, i64 8
  br label %12

12:                                               ; preds = %8, %18
  %.01925 = phi i32 [ 0, %8 ], [ %19, %18 ]
  %13 = call ptr @try_val_to_str(i32 noundef %.01925, ptr noundef nonnull @camel_opr_code_strings)
  %.not23 = icmp eq ptr %13, null
  br i1 %.not23, label %16, label %14

14:                                               ; preds = %12
  %15 = call noalias ptr (ptr, ptr, ...) @wmem_strdup_printf(ptr noundef null, ptr noundef nonnull @.str.1468, ptr noundef nonnull %13)
  br label %18

16:                                               ; preds = %12
  %17 = call noalias ptr (ptr, ptr, ...) @wmem_strdup_printf(ptr noundef null, ptr noundef nonnull @.str.1469, i32 noundef %.01925)
  br label %18

18:                                               ; preds = %16, %14
  %.0 = phi ptr [ %15, %14 ], [ %17, %16 ]
  store ptr %.0, ptr %11, align 8
  call void @stat_tap_init_table_row(ptr noundef %9, i32 noundef %.01925, i32 noundef 2, ptr noundef nonnull %2)
  %19 = add nuw nsw i32 %.01925, 1
  %exitcond.not = icmp eq i32 %19, 256
  br i1 %exitcond.not, label %.loopexit, label %12, !llvm.loop !8

.loopexit:                                        ; preds = %18, %4, %7
  call void @llvm.lifetime.end.p0(i64 48, ptr nonnull %2) #12
  ret void
}